target datalayout = "e-m:e-p270:32:32-p271:32:32-p272:64:64-i64:64-f80:128-n8:16:32:64-S128"
target triple = "x86_64-pc-linux-gnu"

%struct.student = type { [21 x i8], i32, i32, i8, i8, i32, i32 }

@.str = private unnamed_addr constant [3 x i8] c"%d\00", align 1
@.str.1 = private unnamed_addr constant [18 x i8] c"%s %d %d %c %c %d\00", align 1
@.str.2 = private unnamed_addr constant [3 x i8] c"%s\00", align 1
@.str.3 = private unnamed_addr constant [5 x i8] c"\0A%d\0A\00", align 1

; Function Attrs: noinline nounwind uwtable
define dso_local void @main() #0 {
  %1 = alloca i32, align 4
  %2 = alloca i32, align 4
  %3 = alloca i32, align 4
  %4 = alloca i64, align 8
  %5 = alloca [100 x %struct.student], align 16
  %6 = alloca %struct.student, align 4
  store i64 0, i64* %4, align 8
  %7 = call i32 (i8*, ...) @__isoc99_scanf(i8* getelementptr inbounds ([3 x i8], [3 x i8]* @.str, i64 0, i64 0), i32* %1)
  store i32 0, i32* %2, align 4
  br label %8

8:                                                ; preds = %39, %0
  %9 = load i32, i32* %2, align 4
  %10 = load i32, i32* %1, align 4
  %11 = icmp slt i32 %9, %10
  br i1 %11, label %12, label %42

12:                                               ; preds = %8
  %13 = load i32, i32* %2, align 4
  %14 = sext i32 %13 to i64
  %15 = getelementptr inbounds [100 x %struct.student], [100 x %struct.student]* %5, i64 0, i64 %14
  %16 = getelementptr inbounds %struct.student, %struct.student* %15, i32 0, i32 0
  %17 = getelementptr inbounds [21 x i8], [21 x i8]* %16, i64 0, i64 0
  %18 = load i32, i32* %2, align 4
  %19 = sext i32 %18 to i64
  %20 = getelementptr inbounds [100 x %struct.student], [100 x %struct.student]* %5, i64 0, i64 %19
  %21 = getelementptr inbounds %struct.student, %struct.student* %20, i32 0, i32 1
  %22 = load i32, i32* %2, align 4
  %23 = sext i32 %22 to i64
  %24 = getelementptr inbounds [100 x %struct.student], [100 x %struct.student]* %5, i64 0, i64 %23
  %25 = getelementptr inbounds %struct.student, %struct.student* %24, i32 0, i32 2
  %26 = load i32, i32* %2, align 4
  %27 = sext i32 %26 to i64
  %28 = getelementptr inbounds [100 x %struct.student], [100 x %struct.student]* %5, i64 0, i64 %27
  %29 = getelementptr inbounds %struct.student, %struct.student* %28, i32 0, i32 3
  %30 = load i32, i32* %2, align 4
  %31 = sext i32 %30 to i64
  %32 = getelementptr inbounds [100 x %struct.student], [100 x %struct.student]* %5, i64 0, i64 %31
  %33 = getelementptr inbounds %struct.student, %struct.student* %32, i32 0, i32 4
  %34 = load i32, i32* %2, align 4
  %35 = sext i32 %34 to i64
  %36 = getelementptr inbounds [100 x %struct.student], [100 x %struct.student]* %5, i64 0, i64 %35
  %37 = getelementptr inbounds %struct.student, %struct.student* %36, i32 0, i32 5
  %38 = call i32 (i8*, ...) @__isoc99_scanf(i8* getelementptr inbounds ([18 x i8], [18 x i8]* @.str.1, i64 0, i64 0), i8* %17, i32* %21, i32* %25, i8* %29, i8* %33, i32* %37)
  br label %39

39:                                               ; preds = %12
  %40 = load i32, i32* %2, align 4
  %41 = add nsw i32 %40, 1
  store i32 %41, i32* %2, align 4
  br label %8

42:                                               ; preds = %8
  store i32 0, i32* %2, align 4
  br label %43

43:                                               ; preds = %152, %42
  %44 = load i32, i32* %2, align 4
  %45 = load i32, i32* %1, align 4
  %46 = icmp slt i32 %44, %45
  br i1 %46, label %47, label %155

47:                                               ; preds = %43
  %48 = load i32, i32* %2, align 4
  %49 = sext i32 %48 to i64
  %50 = getelementptr inbounds [100 x %struct.student], [100 x %struct.student]* %5, i64 0, i64 %49
  %51 = getelementptr inbounds %struct.student, %struct.student* %50, i32 0, i32 6
  store i32 0, i32* %51, align 4
  %52 = load i32, i32* %2, align 4
  %53 = sext i32 %52 to i64
  %54 = getelementptr inbounds [100 x %struct.student], [100 x %struct.student]* %5, i64 0, i64 %53
  %55 = getelementptr inbounds %struct.student, %struct.student* %54, i32 0, i32 1
  %56 = load i32, i32* %55, align 4
  %57 = icmp sgt i32 %56, 80
  br i1 %57, label %58, label %72

58:                                               ; preds = %47
  %59 = load i32, i32* %2, align 4
  %60 = sext i32 %59 to i64
  %61 = getelementptr inbounds [100 x %struct.student], [100 x %struct.student]* %5, i64 0, i64 %60
  %62 = getelementptr inbounds %struct.student, %struct.student* %61, i32 0, i32 5
  %63 = load i32, i32* %62, align 4
  %64 = icmp sgt i32 %63, 0
  br i1 %64, label %65, label %72

65:                                               ; preds = %58
  %66 = load i32, i32* %2, align 4
  %67 = sext i32 %66 to i64
  %68 = getelementptr inbounds [100 x %struct.student], [100 x %struct.student]* %5, i64 0, i64 %67
  %69 = getelementptr inbounds %struct.student, %struct.student* %68, i32 0, i32 6
  %70 = load i32, i32* %69, align 4
  %71 = add nsw i32 %70, 8000
  store i32 %71, i32* %69, align 4
  br label %72

72:                                               ; preds = %65, %58, %47
  %73 = load i32, i32* %2, align 4
  %74 = sext i32 %73 to i64
  %75 = getelementptr inbounds [100 x %struct.student], [100 x %struct.student]* %5, i64 0, i64 %74
  %76 = getelementptr inbounds %struct.student, %struct.student* %75, i32 0, i32 1
  %77 = load i32, i32* %76, align 4
  %78 = icmp sgt i32 %77, 85
  br i1 %78, label %79, label %93

79:                                               ; preds = %72
  %80 = load i32, i32* %2, align 4
  %81 = sext i32 %80 to i64
  %82 = getelementptr inbounds [100 x %struct.student], [100 x %struct.student]* %5, i64 0, i64 %81
  %83 = getelementptr inbounds %struct.student, %struct.student* %82, i32 0, i32 2
  %84 = load i32, i32* %83, align 4
  %85 = icmp sgt i32 %84, 80
  br i1 %85, label %86, label %93

86:                                               ; preds = %79
  %87 = load i32, i32* %2, align 4
  %88 = sext i32 %87 to i64
  %89 = getelementptr inbounds [100 x %struct.student], [100 x %struct.student]* %5, i64 0, i64 %88
  %90 = getelementptr inbounds %struct.student, %struct.student* %89, i32 0, i32 6
  %91 = load i32, i32* %90, align 4
  %92 = add nsw i32 %91, 4000
  store i32 %92, i32* %90, align 4
  br label %93

93:                                               ; preds = %86, %79, %72
  %94 = load i32, i32* %2, align 4
  %95 = sext i32 %94 to i64
  %96 = getelementptr inbounds [100 x %struct.student], [100 x %struct.student]* %5, i64 0, i64 %95
  %97 = getelementptr inbounds %struct.student, %struct.student* %96, i32 0, i32 1
  %98 = load i32, i32* %97, align 4
  %99 = icmp sgt i32 %98, 90
  br i1 %99, label %100, label %107

100:                                              ; preds = %93
  %101 = load i32, i32* %2, align 4
  %102 = sext i32 %101 to i64
  %103 = getelementptr inbounds [100 x %struct.student], [100 x %struct.student]* %5, i64 0, i64 %102
  %104 = getelementptr inbounds %struct.student, %struct.student* %103, i32 0, i32 6
  %105 = load i32, i32* %104, align 4
  %106 = add nsw i32 %105, 2000
  store i32 %106, i32* %104, align 4
  br label %107

107:                                              ; preds = %100, %93
  %108 = load i32, i32* %2, align 4
  %109 = sext i32 %108 to i64
  %110 = getelementptr inbounds [100 x %struct.student], [100 x %struct.student]* %5, i64 0, i64 %109
  %111 = getelementptr inbounds %struct.student, %struct.student* %110, i32 0, i32 1
  %112 = load i32, i32* %111, align 4
  %113 = icmp sgt i32 %112, 85
  br i1 %113, label %114, label %129

114:                                              ; preds = %107
  %115 = load i32, i32* %2, align 4
  %116 = sext i32 %115 to i64
  %117 = getelementptr inbounds [100 x %struct.student], [100 x %struct.student]* %5, i64 0, i64 %116
  %118 = getelementptr inbounds %struct.student, %struct.student* %117, i32 0, i32 4
  %119 = load i8, i8* %118, align 1
  %120 = sext i8 %119 to i32
  %121 = icmp eq i32 %120, 89
  br i1 %121, label %122, label %129

122:                                              ; preds = %114
  %123 = load i32, i32* %2, align 4
  %124 = sext i32 %123 to i64
  %125 = getelementptr inbounds [100 x %struct.student], [100 x %struct.student]* %5, i64 0, i64 %124
  %126 = getelementptr inbounds %struct.student, %struct.student* %125, i32 0, i32 6
  %127 = load i32, i32* %126, align 4
  %128 = add nsw i32 %127, 1000
  store i32 %128, i32* %126, align 4
  br label %129

129:                                              ; preds = %122, %114, %107
  %130 = load i32, i32* %2, align 4
  %131 = sext i32 %130 to i64
  %132 = getelementptr inbounds [100 x %struct.student], [100 x %struct.student]* %5, i64 0, i64 %131
  %133 = getelementptr inbounds %struct.student, %struct.student* %132, i32 0, i32 2
  %134 = load i32, i32* %133, align 4
  %135 = icmp sgt i32 %134, 80
  br i1 %135, label %136, label %151

136:                                              ; preds = %129
  %137 = load i32, i32* %2, align 4
  %138 = sext i32 %137 to i64
  %139 = getelementptr inbounds [100 x %struct.student], [100 x %struct.student]* %5, i64 0, i64 %138
  %140 = getelementptr inbounds %struct.student, %struct.student* %139, i32 0, i32 3
  %141 = load i8, i8* %140, align 4
  %142 = sext i8 %141 to i32
  %143 = icmp eq i32 %142, 89
  br i1 %143, label %144, label %151

144:                                              ; preds = %136
  %145 = load i32, i32* %2, align 4
  %146 = sext i32 %145 to i64
  %147 = getelementptr inbounds [100 x %struct.student], [100 x %struct.student]* %5, i64 0, i64 %146
  %148 = getelementptr inbounds %struct.student, %struct.student* %147, i32 0, i32 6
  %149 = load i32, i32* %148, align 4
  %150 = add nsw i32 %149, 850
  store i32 %150, i32* %148, align 4
  br label %151

151:                                              ; preds = %144, %136, %129
  br label %152

152:                                              ; preds = %151
  %153 = load i32, i32* %2, align 4
  %154 = add nsw i32 %153, 1
  store i32 %154, i32* %2, align 4
  br label %43

155:                                              ; preds = %43
  store i32 1, i32* %3, align 4
  br label %156

156:                                              ; preds = %206, %155
  %157 = load i32, i32* %3, align 4
  %158 = load i32, i32* %1, align 4
  %159 = icmp slt i32 %157, %158
  br i1 %159, label %160, label %209

160:                                              ; preds = %156
  store i32 0, i32* %2, align 4
  br label %161

161:                                              ; preds = %202, %160
  %162 = load i32, i32* %2, align 4
  %163 = load i32, i32* %1, align 4
  %164 = load i32, i32* %3, align 4
  %165 = sub nsw i32 %163, %164
  %166 = icmp slt i32 %162, %165
  br i1 %166, label %167, label %205

167:                                              ; preds = %161
  %168 = load i32, i32* %2, align 4
  %169 = add nsw i32 %168, 1
  %170 = sext i32 %169 to i64
  %171 = getelementptr inbounds [100 x %struct.student], [100 x %struct.student]* %5, i64 0, i64 %170
  %172 = getelementptr inbounds %struct.student, %struct.student* %171, i32 0, i32 6
  %173 = load i32, i32* %172, align 4
  %174 = load i32, i32* %2, align 4
  %175 = sext i32 %174 to i64
  %176 = getelementptr inbounds [100 x %struct.student], [100 x %struct.student]* %5, i64 0, i64 %175
  %177 = getelementptr inbounds %struct.student, %struct.student* %176, i32 0, i32 6
  %178 = load i32, i32* %177, align 4
  %179 = icmp sgt i32 %173, %178
  br i1 %179, label %180, label %201

180:                                              ; preds = %167
  %181 = load i32, i32* %2, align 4
  %182 = sext i32 %181 to i64
  %183 = getelementptr inbounds [100 x %struct.student], [100 x %struct.student]* %5, i64 0, i64 %182
  %184 = bitcast %struct.student* %6 to i8*
  %185 = bitcast %struct.student* %183 to i8*
  call void @llvm.memcpy.p0i8.p0i8.i64(i8* align 4 %184, i8* align 4 %185, i64 44, i1 false)
  %186 = load i32, i32* %2, align 4
  %187 = sext i32 %186 to i64
  %188 = getelementptr inbounds [100 x %struct.student], [100 x %struct.student]* %5, i64 0, i64 %187
  %189 = load i32, i32* %2, align 4
  %190 = add nsw i32 %189, 1
  %191 = sext i32 %190 to i64
  %192 = getelementptr inbounds [100 x %struct.student], [100 x %struct.student]* %5, i64 0, i64 %191
  %193 = bitcast %struct.student* %188 to i8*
  %194 = bitcast %struct.student* %192 to i8*
  call void @llvm.memcpy.p0i8.p0i8.i64(i8* align 4 %193, i8* align 4 %194, i64 44, i1 false)
  %195 = load i32, i32* %2, align 4
  %196 = add nsw i32 %195, 1
  %197 = sext i32 %196 to i64
  %198 = getelementptr inbounds [100 x %struct.student], [100 x %struct.student]* %5, i64 0, i64 %197
  %199 = bitcast %struct.student* %198 to i8*
  %200 = bitcast %struct.student* %6 to i8*
  call void @llvm.memcpy.p0i8.p0i8.i64(i8* align 4 %199, i8* align 4 %200, i64 44, i1 false)
  br label %201

201:                                              ; preds = %180, %167
  br label %202

202:                                              ; preds = %201
  %203 = load i32, i32* %2, align 4
  %204 = add nsw i32 %203, 1
  store i32 %204, i32* %2, align 4
  br label %161

205:                                              ; preds = %161
  br label %206

206:                                              ; preds = %205
  %207 = load i32, i32* %3, align 4
  %208 = add nsw i32 %207, 1
  store i32 %208, i32* %3, align 4
  br label %156

209:                                              ; preds = %156
  store i32 0, i32* %2, align 4
  br label %210

210:                                              ; preds = %223, %209
  %211 = load i32, i32* %2, align 4
  %212 = load i32, i32* %1, align 4
  %213 = icmp slt i32 %211, %212
  br i1 %213, label %214, label %226

214:                                              ; preds = %210
  %215 = load i32, i32* %2, align 4
  %216 = sext i32 %215 to i64
  %217 = getelementptr inbounds [100 x %struct.student], [100 x %struct.student]* %5, i64 0, i64 %216
  %218 = getelementptr inbounds %struct.student, %struct.student* %217, i32 0, i32 6
  %219 = load i32, i32* %218, align 4
  %220 = sext i32 %219 to i64
  %221 = load i64, i64* %4, align 8
  %222 = add nsw i64 %221, %220
  store i64 %222, i64* %4, align 8
  br label %223

223:                                              ; preds = %214
  %224 = load i32, i32* %2, align 4
  %225 = add nsw i32 %224, 1
  store i32 %225, i32* %2, align 4
  br label %210

226:                                              ; preds = %210
  %227 = getelementptr inbounds [100 x %struct.student], [100 x %struct.student]* %5, i64 0, i64 0
  %228 = getelementptr inbounds %struct.student, %struct.student* %227, i32 0, i32 0
  %229 = getelementptr inbounds [21 x i8], [21 x i8]* %228, i64 0, i64 0
  %230 = call i32 (i8*, ...) @printf(i8* getelementptr inbounds ([3 x i8], [3 x i8]* @.str.2, i64 0, i64 0), i8* %229)
  %231 = getelementptr inbounds [100 x %struct.student], [100 x %struct.student]* %5, i64 0, i64 0
  %232 = getelementptr inbounds %struct.student, %struct.student* %231, i32 0, i32 6
  %233 = load i32, i32* %232, align 8
  %234 = call i32 (i8*, ...) @printf(i8* getelementptr inbounds ([5 x i8], [5 x i8]* @.str.3, i64 0, i64 0), i32 %233)
  %235 = load i64, i64* %4, align 8
  %236 = call i32 (i8*, ...) @printf(i8* getelementptr inbounds ([3 x i8], [3 x i8]* @.str, i64 0, i64 0), i64 %235)
  ret void
}